(lp1
(lp2
I69
aI689
aI1307
aI1369
aI50
aI424
aI762
aI208
aI1925
aI37
aI565
aI2469
aI1243
aI5552
aI31
aI794
aI25
aI3187
aI2631
aI3739
aI410
aI743
aI595
aI38
aI1105
aI95
aa(lp3
I729
aI119
aI7
aI6
aI1642
aI5
aI4
aI12
aI301
aI20
aI1
aI1003
aI10
aI4
aI918
aI5
aI0
aI645
aI106
aI34
aI677
aI2
aI10
aI0
aI373
aI0
aa(lp4
I1132
aI4
aI104
aI7
aI1265
aI7
aI5
aI1528
aI327
aI2
aI1077
aI403
aI8
aI10
aI1533
aI8
aI11
aI562
aI27
aI398
aI330
aI2
aI4
aI0
aI50
aI5
aa(lp5
I1799
aI580
aI299
aI485
aI2014
aI418
aI323
aI940
aI1620
aI61
aI66
aI522
aI501
aI331
aI1664
aI305
aI37
aI598
aI1279
aI1478
aI368
aI54
aI605
aI1
aI447
aI3
aa(lp6
I3940
aI907
aI1377
aI4759
aI1949
aI1021
aI737
aI1227
aI1455
aI117
aI232
aI2543
aI1584
aI3802
aI1119
aI1352
aI98
aI6458
aI5065
aI3340
aI200
aI643
aI1546
aI220
aI1206
aI23
aa(lp7
I898
aI134
aI113
aI69
aI799
aI501
aI68
aI343
aI822
aI26
aI25
aI438
aI140
aI49
aI1358
aI102
aI6
aI721
aI199
aI1147
aI291
aI21
aI113
aI0
aI88
aI1
aa(lp8
I1116
aI162
aI100
aI100
aI1166
aI158
aI186
aI1533
aI648
aI20
aI14
aI458
aI126
aI155
aI969
aI89
aI8
aI629
aI470
aI595
aI280
aI13
aI196
aI0
aI89
aI1
aa(lp9
I3799
aI126
aI103
aI74
aI11404
aI97
aI52
aI223
aI3495
aI15
aI10
aI86
aI156
aI142
aI1824
aI65
aI7
aI361
aI235
aI1137
aI362
aI11
aI127
aI0
aI240
aI0
aa(lp10
I450
aI204
aI1152
aI1689
aI940
aI628
aI1040
aI111
aI25
aI10
aI325
aI1485
aI1149
aI7610
aI627
aI293
aI15
aI1280
aI3520
aI3062
aI63
aI435
aI138
aI71
aI9
aI68
aa(lp11
I109
aI0
aI2
aI0
aI105
aI1
aI0
aI0
aI12
aI42
aI0
aI0
aI2
aI0
aI274
aI0
aI0
aI1
aI1
aI0
aI168
aI0
aI1
aI0
aI0
aI0
aa(lp12
I209
aI64
aI44
aI32
aI1535
aI60
aI18
aI108
aI770
aI9
aI9
aI143
aI153
aI364
aI157
aI42
aI8
aI32
aI350
aI197
aI35
aI5
aI93
aI0
aI95
aI0
aa(lp13
I1737
aI193
aI100
aI1139
aI2809
aI333
aI79
aI157
aI2407
aI13
aI269
aI2835
aI179
aI76
aI2102
aI139
aI4
aI74
aI617
aI598
aI479
aI99
aI189
aI0
aI1320
aI1
aa(lp14
I1706
aI414
aI87
aI56
aI2271
aI92
aI53
aI191
aI895
aI13
aI18
aI119
aI232
aI119
aI1255
aI398
aI8
aI576
aI499
aI399
aI579
aI8
aI98
aI1
aI426
aI0
aa(lp15
I1334
aI299
aI943
aI3991
aI2679
aI285
aI4075
aI706
aI1235
aI65
aI432
aI376
aI366
aI551
aI1890
aI185
aI35
aI159
aI1536
aI3531
aI201
aI133
aI354
aI8
aI419
aI9
aa(lp16
I543
aI447
aI479
aI806
aI245
aI2781
aI255
aI420
aI518
aI28
aI547
aI1137
aI1975
aI3633
aI1877
aI638
aI10
aI3122
aI1129
aI1830
aI4058
aI553
aI1935
aI49
aI373
aI17
aa(lp17
I985
aI50
aI18
aI18
aI1299
aI42
aI14
aI472
aI642
aI5
aI8
aI595
aI39
aI21
aI890
aI358
aI3
aI597
aI284
aI247
aI302
aI5
aI58
aI0
aI77
aI1
aa(lp18
I0
aI0
aI1
aI1
aI0
aI0
aI0
aI0
aI0
aI0
aI0
aI0
aI0
aI0
aI0
aI0
aI0
aI0
aI0
aI1
aI432
aI0
aI0
aI0
aI1
aI0
aa(lp19
I2063
aI563
aI504
aI1040
aI4518
aI333
aI358
aI557
aI2101
aI47
aI328
aI488
aI592
aI759
aI2481
aI330
aI19
aI483
aI1686
aI1674
aI495
aI143
aI408
aI0
aI758
aI3
aa(lp20
I2730
aI636
aI727
aI330
aI2615
aI477
aI264
aI2313
aI1884
aI87
aI375
aI682
aI700
aI417
aI1884
aI831
aI93
aI217
aI1840
aI4596
aI610
aI88
aI844
aI1
aI249
aI0
aa(lp21
I1830
aI413
aI482
aI271
aI3032
aI300
aI164
aI11240
aI2375
aI49
aI89
aI758
aI448
aI219
aI3770
aI242
aI31
aI1032
aI1484
aI2023
aI637
aI39
aI910
aI1
aI562
aI17
aa(lp22
I286
aI257
aI506
aI287
aI303
aI120
aI625
aI75
aI375
aI9
aI76
aI997
aI502
aI1328
aI43
aI554
aI1
aI1681
aI1403
aI1472
aI14
aI8
aI94
aI5
aI27
aI13
aa(lp23
I170
aI1
aI0
aI0
aI2196
aI0
aI0
aI1
aI416
aI0
aI0
aI0
aI0
aI1
aI173
aI0
aI0
aI1
aI1
aI0
aI5
aI2
aI0
aI0
aI66
aI0
aa(lp24
I1832
aI58
aI43
aI69
aI1264
aI89
aI26
aI1402
aI1627
aI6
aI15
aI116
aI77
aI470
aI929
aI30
aI4
aI157
aI251
aI180
aI18
aI5
aI95
aI0
aI34
aI1
aa(lp25
I41
aI4
aI39
aI4
aI23
aI12
aI1
aI11
aI40
aI0
aI0
aI6
aI6
aI1
aI16
aI68
aI1
aI4
aI7
aI92
aI4
aI0
aI12
aI0
aI5
aI0
aa(lp26
I520
aI306
aI271
aI195
aI681
aI287
aI164
aI370
aI456
aI37
aI51
aI276
aI319
aI183
aI1602
aI202
aI12
aI154
aI867
aI646
aI39
aI20
aI373
aI2
aI71
aI4
aa(lp27
I35
aI3
aI1
aI1
aI117
aI1
aI8
aI3
aI27
aI0
aI0
aI13
aI6
aI0
aI19
aI0
aI0
aI0
aI3
aI2
aI4
aI1
aI0
aI0
aI18
aI33
aa.