(lp1
(lp2
I275
aI535
aI881
aI470
aI27
aI665
aI506
aI400
aI193
aI35
aI72
aI819
aI768
aI297
aI147
aI721
aI42
aI412
aI1253
aI615
aI61
aI297
aI569
aI1
aI99
aI10
aa(lp3
I45
aI9
aI16
aI9
aI2
aI7
aI4
aI21
aI34
aI0
aI2
aI4
aI13
aI4
aI37
aI22
aI0
aI8
aI32
aI40
aI4
aI0
aI19
aI0
aI7
aI0
aa(lp4
I162
aI40
aI129
aI75
aI93
aI57
aI29
aI39
aI84
aI1
aI35
aI37
aI70
aI31
aI48
aI94
aI1
aI33
aI112
aI123
aI3
aI8
aI134
aI1
aI10
aI0
aa(lp5
I4470
aI2998
aI1229
aI1060
aI1174
aI1477
aI629
aI2831
aI3895
aI246
aI194
aI855
aI2051
aI1507
aI2497
aI1161
aI63
aI687
aI2792
aI7608
aI675
aI224
aI2337
aI12
aI663
aI11
aa(lp6
I7661
aI3397
aI4097
aI2618
aI2545
aI3134
aI1630
aI3790
aI5606
aI318
aI510
aI2133
aI3743
aI1917
aI5592
aI3403
aI169
aI2070
aI6796
aI8648
aI925
aI668
aI5978
aI126
aI1181
aI23
aa(lp7
I1688
aI373
aI642
aI339
aI561
aI329
aI247
aI1240
aI962
aI63
aI46
aI418
aI1057
aI250
aI471
aI562
aI15
aI310
aI951
aI4799
aI159
aI106
aI628
aI15
aI582
aI10
aa(lp8
I1895
aI505
aI488
aI378
aI325
aI496
aI121
aI746
aI1133
aI40
aI34
aI337
aI625
aI200
aI1123
aI407
aI17
aI208
aI675
aI2814
aI210
aI83
aI745
aI7
aI236
aI0
aa(lp9
I1877
aI316
aI404
aI201
aI287
aI303
aI160
aI855
aI993
aI65
aI40
aI227
aI639
aI167
aI791
aI335
aI9
aI220
aI722
aI1845
aI97
aI42
aI756
aI4
aI194
aI2
aa(lp10
I543
aI138
aI566
aI453
aI74
aI180
aI159
aI674
aI43
aI29
aI217
aI150
aI206
aI134
aI67
aI126
aI5
aI143
aI814
aI409
aI50
aI11
aI873
aI0
aI7
aI0
aa(lp11
I8
aI1
aI4
aI1
aI0
aI0
aI0
aI19
aI2
aI28
aI0
aI1
aI0
aI0
aI0
aI0
aI0
aI2
aI7
aI9
aI0
aI0
aI23
aI0
aI0
aI0
aa(lp12
I613
aI126
aI64
aI54
aI65
aI110
aI21
aI190
aI468
aI9
aI17
aI57
aI138
aI38
aI585
aI81
aI4
aI36
aI186
aI621
aI67
aI17
aI236
aI0
aI131
aI13
aa(lp13
I1207
aI616
aI593
aI349
aI307
aI405
aI205
aI485
aI844
aI38
aI66
aI302
aI509
aI332
aI738
aI495
aI25
aI329
aI722
aI1579
aI103
aI63
aI522
aI4
aI165
aI3
aa(lp14
I1076
aI269
aI197
aI133
aI219
aI193
aI117
aI414
aI725
aI43
aI31
aI153
aI280
aI168
aI471
aI143
aI18
aI108
aI557
aI1495
aI70
aI38
aI529
aI4
aI98
aI2
aa(lp15
I4314
aI1102
aI893
aI658
aI1011
aI918
aI410
aI1611
aI2744
aI131
aI104
aI521
aI1394
aI341
aI2560
aI878
aI45
aI529
aI1777
aI6880
aI302
aI165
aI1689
aI22
aI492
aI3
aa(lp16
I1401
aI1492
aI809
aI805
aI612
aI582
aI630
aI1301
aI825
aI156
aI230
aI614
aI1409
aI466
aI626
aI623
aI27
aI553
aI1504
aI2705
aI240
aI111
aI822
aI5
aI390
aI3
aa(lp17
I357
aI94
aI48
aI40
aI30
aI66
aI14
aI82
aI238
aI9
aI3
aI28
aI86
aI21
aI220
aI45
aI1
aI29
aI116
aI394
aI25
aI6
aI181
aI1
aI40
aI1
aa(lp18
I1
aI0
aI1
aI0
aI0
aI0
aI1
aI0
aI1
aI0
aI0
aI0
aI2
aI0
aI0
aI1
aI0
aI0
aI0
aI2
aI0
aI0
aI0
aI0
aI1
aI0
aa(lp19
I3209
aI1249
aI1258
aI1070
aI842
aI1179
aI378
aI1398
aI1829
aI148
aI141
aI633
aI1356
aI452
aI1660
aI969
aI29
aI568
aI1971
aI3646
aI293
aI174
aI1622
aI14
aI370
aI11
aa(lp20
I7505
aI2387
aI1781
aI1192
aI1223
aI1810
aI838
aI1664
aI4116
aI216
aI145
aI1232
aI1682
aI1488
aI4727
aI1471
aI88
aI1005
aI3170
aI6386
aI471
aI382
aI3444
aI11
aI536
aI4
aa(lp21
I4582
aI1857
aI1295
aI1090
aI927
aI1264
aI828
aI2684
aI4901
aI183
aI268
aI1122
aI2031
aI791
aI3359
aI1077
aI60
aI700
aI2520
aI6715
aI565
aI173
aI3546
aI5
aI809
aI13
aa(lp22
I484
aI99
aI351
aI209
aI53
aI104
aI123
aI274
aI158
aI18
aI150
aI94
aI370
aI82
aI109
aI98
aI7
aI65
aI254
aI330
aI38
aI8
aI398
aI0
aI34
aI0
aa(lp23
I6
aI0
aI3
aI1
aI3
aI0
aI0
aI0
aI6
aI0
aI0
aI1
aI0
aI2
aI2
aI3
aI0
aI2
aI3
aI9
aI0
aI1
aI4
aI0
aI0
aI1
aa(lp24
I378
aI112
aI137
aI117
aI80
aI98
aI48
aI259
aI409
aI10
aI27
aI91
aI285
aI98
aI190
aI84
aI5
aI48
aI211
aI670
aI53
aI36
aI340
aI0
aI99
aI8
aa(lp25
I68
aI17
aI9
aI18
aI10
aI9
aI7
aI11
aI37
aI2
aI0
aI5
aI15
aI4
aI28
aI14
aI1
aI8
aI17
aI49
aI14
aI3
aI21
aI0
aI2
aI0
aa(lp26
I3095
aI1223
aI1333
aI1100
aI729
aI1075
aI475
aI1400
aI1909
aI117
aI193
aI738
aI1136
aI531
aI1950
aI1048
aI28
aI685
aI1891
aI3125
aI285
aI150
aI1920
aI22
aI336
aI5
aa(lp27
I3
aI1
aI12
aI1
aI0
aI1
aI1
aI8
aI4
aI2
aI0
aI3
aI2
aI1
aI4
aI2
aI0
aI2
aI6
aI5
aI0
aI0
aI3
aI0
aI0
aI0
aa.
